target datalayout = "e-m:e-p270:32:32-p271:32:32-p272:64:64-i64:64-i128:128-f80:128-n8:16:32:64-S128"
target triple = "x86_64-pc-linux-gnu"

%struct.Registers = type { i32, i32 }
%struct.VHeader_ = type { i32, i32, [0 x i8] }
%struct.FunctionPrototype_ = type { i16, i16, ptr, ptr, ptr, ptr, ptr, ptr, ptr, ptr, ptr, ptr, ptr }

@__const.c_abi_func_create_x64.available_registers = private unnamed_addr constant %struct.Registers { i32 8, i32 6 }, align 4

; Function Attrs: nounwind uwtable
define dso_local zeroext i1 @try_use_registers(ptr noundef %0, ptr noundef %1) #0 {
  %3 = alloca i1, align 1
  %4 = alloca ptr, align 8
  %5 = alloca ptr, align 8
  store ptr %0, ptr %4, align 8
  store ptr %1, ptr %5, align 8
  %6 = load ptr, ptr %4, align 8
  %7 = getelementptr inbounds %struct.Registers, ptr %6, i32 0, i32 0
  %8 = load i32, ptr %7, align 4
  %9 = load ptr, ptr %5, align 8
  %10 = getelementptr inbounds %struct.Registers, ptr %9, i32 0, i32 0
  %11 = load i32, ptr %10, align 4
  %12 = icmp ult i32 %8, %11
  br i1 %12, label %13, label %14

13:                                               ; preds = %2
  store i1 false, ptr %3, align 1
  br label %38

14:                                               ; preds = %2
  %15 = load ptr, ptr %4, align 8
  %16 = getelementptr inbounds %struct.Registers, ptr %15, i32 0, i32 1
  %17 = load i32, ptr %16, align 4
  %18 = load ptr, ptr %5, align 8
  %19 = getelementptr inbounds %struct.Registers, ptr %18, i32 0, i32 1
  %20 = load i32, ptr %19, align 4
  %21 = icmp ult i32 %17, %20
  br i1 %21, label %22, label %23

22:                                               ; preds = %14
  store i1 false, ptr %3, align 1
  br label %38

23:                                               ; preds = %14
  %24 = load ptr, ptr %5, align 8
  %25 = getelementptr inbounds %struct.Registers, ptr %24, i32 0, i32 1
  %26 = load i32, ptr %25, align 4
  %27 = load ptr, ptr %4, align 8
  %28 = getelementptr inbounds %struct.Registers, ptr %27, i32 0, i32 1
  %29 = load i32, ptr %28, align 4
  %30 = sub i32 %29, %26
  store i32 %30, ptr %28, align 4
  %31 = load ptr, ptr %5, align 8
  %32 = getelementptr inbounds %struct.Registers, ptr %31, i32 0, i32 0
  %33 = load i32, ptr %32, align 4
  %34 = load ptr, ptr %4, align 8
  %35 = getelementptr inbounds %struct.Registers, ptr %34, i32 0, i32 0
  %36 = load i32, ptr %35, align 4
  %37 = sub i32 %36, %33
  store i32 %37, ptr %35, align 4
  store i1 true, ptr %3, align 1
  br label %38

38:                                               ; preds = %23, %22, %13
  %39 = load i1, ptr %3, align 1
  ret i1 %39
}

; Function Attrs: nounwind uwtable
define internal ptr @x64_classify_parameter(ptr noundef %0, ptr noundef %1, i32 noundef %2) #0 {
  %4 = alloca ptr, align 8
  %5 = alloca ptr, align 8
  %6 = alloca ptr, align 8
  %7 = alloca i32, align 4
  %8 = alloca %struct.Registers, align 4
  %9 = alloca ptr, align 8
  store ptr %0, ptr %5, align 8
  store ptr %1, ptr %6, align 8
  store i32 %2, ptr %7, align 4
  call void @llvm.memset.p0.i64(ptr align 4 %8, i8 0, i64 8, i1 false)
  %10 = load ptr, ptr %5, align 8
  %11 = call ptr @type_lowering(ptr noundef %10)
  store ptr %11, ptr %5, align 8
  %12 = load ptr, ptr %5, align 8
  %13 = load ptr, ptr %6, align 8
  %14 = getelementptr inbounds %struct.Registers, ptr %13, i32 0, i32 1
  %15 = load i32, ptr %14, align 4
  %16 = load i32, ptr %7, align 4
  %17 = call ptr @x64_classify_argument_type(ptr noundef %12, i32 noundef %15, ptr noundef %8, i32 noundef %16)
  store ptr %17, ptr %9, align 8
  %18 = load ptr, ptr %6, align 8
  %19 = call zeroext i1 @try_use_registers(ptr noundef %18, ptr noundef %8)
  br i1 %19, label %20, label %22

20:                                               ; preds = %3
  %21 = load ptr, ptr %9, align 8
  store ptr %21, ptr %4, align 8
  br label %28

22:                                               ; preds = %3
  %23 = load ptr, ptr %5, align 8
  %24 = load ptr, ptr %6, align 8
  %25 = getelementptr inbounds %struct.Registers, ptr %24, i32 0, i32 1
  %26 = load i32, ptr %25, align 4
  %27 = call ptr @x64_indirect_result(ptr noundef %23, i32 noundef %26)
  store ptr %27, ptr %4, align 8
  br label %28

28:                                               ; preds = %22, %20
  %29 = load ptr, ptr %4, align 8
  ret ptr %29
}

; Function Attrs: nounwind uwtable
define dso_local void @c_abi_func_create_x64(ptr noundef %0) #0 {
  %2 = alloca i32, align 4
  %3 = alloca ptr, align 8
  %4 = alloca ptr, align 8
  %5 = alloca i32, align 4
  %6 = alloca ptr, align 8
  %7 = alloca ptr, align 8
  %8 = alloca ptr, align 8
  %9 = alloca %struct.Registers, align 4
  %10 = alloca ptr, align 8
  %11 = alloca i32, align 4
  %12 = alloca ptr, align 8
  %13 = alloca i32, align 4
  %14 = alloca i32, align 4
  %15 = alloca ptr, align 8
  %16 = alloca i32, align 4
  store ptr %0, ptr %8, align 8
  %17 = load ptr, ptr %8, align 8
  %18 = load i16, ptr %17, align 8
  %19 = lshr i16 %18, 5
  %20 = and i16 %19, 1
  %21 = trunc i16 %20 to i1
  br i1 %21, label %22, label %24

22:                                               ; preds = %1
  %23 = load ptr, ptr %8, align 8
  call void @c_abi_func_create_win64(ptr noundef %23)
  br label %146

24:                                               ; preds = %1
  call void @llvm.memcpy.p0.p0.i64(ptr align 4 %9, ptr align 4 @__const.c_abi_func_create_x64.available_registers, i64 8, i1 false)
  %25 = load ptr, ptr %8, align 8
  %26 = getelementptr inbounds %struct.FunctionPrototype_, ptr %25, i32 0, i32 7
  %27 = load ptr, ptr %26, align 8
  %28 = call ptr @type_lowering(ptr noundef %27)
  %29 = call ptr @x64_classify_return(ptr noundef %28)
  %30 = load ptr, ptr %8, align 8
  %31 = getelementptr inbounds %struct.FunctionPrototype_, ptr %30, i32 0, i32 8
  store ptr %29, ptr %31, align 8
  %32 = load ptr, ptr %8, align 8
  %33 = getelementptr inbounds %struct.FunctionPrototype_, ptr %32, i32 0, i32 8
  %34 = load ptr, ptr %33, align 8
  %35 = call zeroext i1 @abi_arg_is_indirect(ptr noundef %34)
  br i1 %35, label %36, label %40

36:                                               ; preds = %24
  %37 = getelementptr inbounds %struct.Registers, ptr %9, i32 0, i32 1
  %38 = load i32, ptr %37, align 4
  %39 = add i32 %38, -1
  store i32 %39, ptr %37, align 4
  br label %40

40:                                               ; preds = %36, %24
  %41 = load ptr, ptr %8, align 8
  %42 = load i16, ptr %41, align 8
  %43 = lshr i16 %42, 7
  %44 = and i16 %43, 1
  %45 = trunc i16 %44 to i1
  br i1 %45, label %46, label %55

46:                                               ; preds = %40
  %47 = load ptr, ptr %8, align 8
  %48 = getelementptr inbounds %struct.FunctionPrototype_, ptr %47, i32 0, i32 6
  %49 = load ptr, ptr %48, align 8
  %50 = call ptr @type_lowering(ptr noundef %49)
  %51 = call ptr @type_get_ptr(ptr noundef %50)
  %52 = call ptr @x64_classify_parameter(ptr noundef %51, ptr noundef %9, i32 noundef 1)
  %53 = load ptr, ptr %8, align 8
  %54 = getelementptr inbounds %struct.FunctionPrototype_, ptr %53, i32 0, i32 9
  store ptr %52, ptr %54, align 8
  br label %55

55:                                               ; preds = %46, %40
  %56 = load ptr, ptr %8, align 8
  %57 = getelementptr inbounds %struct.FunctionPrototype_, ptr %56, i32 0, i32 3
  %58 = load ptr, ptr %57, align 8
  store ptr %58, ptr %10, align 8
  %59 = load ptr, ptr %8, align 8
  %60 = getelementptr inbounds %struct.FunctionPrototype_, ptr %59, i32 0, i32 3
  %61 = load ptr, ptr %60, align 8
  store ptr %61, ptr %3, align 8
  %62 = load ptr, ptr %3, align 8
  %63 = icmp ne ptr %62, null
  br i1 %63, label %65, label %64

64:                                               ; preds = %55
  store i32 0, ptr %2, align 4
  br label %70

65:                                               ; preds = %55
  %66 = load ptr, ptr %3, align 8
  store ptr %66, ptr %4, align 8
  %67 = load ptr, ptr %4, align 8
  %68 = getelementptr inbounds %struct.VHeader_, ptr %67, i64 -1
  %69 = load i32, ptr %68, align 4
  store i32 %69, ptr %2, align 4
  br label %70

70:                                               ; preds = %65, %64
  %71 = load i32, ptr %2, align 4
  store i32 %71, ptr %11, align 4
  %72 = load i32, ptr %11, align 4
  %73 = icmp ne i32 %72, 0
  br i1 %73, label %74, label %101

74:                                               ; preds = %70
  %75 = load i32, ptr %11, align 4
  %76 = zext i32 %75 to i64
  %77 = mul i64 32, %76
  %78 = call ptr @calloc_arena(i64 noundef %77)
  store ptr %78, ptr %12, align 8
  store i32 0, ptr %13, align 4
  br label %79

79:                                               ; preds = %94, %74
  %80 = load i32, ptr %13, align 4
  %81 = load i32, ptr %11, align 4
  %82 = icmp ult i32 %80, %81
  br i1 %82, label %83, label %97

83:                                               ; preds = %79
  %84 = load ptr, ptr %10, align 8
  %85 = load i32, ptr %13, align 4
  %86 = zext i32 %85 to i64
  %87 = getelementptr inbounds ptr, ptr %84, i64 %86
  %88 = load ptr, ptr %87, align 8
  %89 = call ptr @x64_classify_parameter(ptr noundef %88, ptr noundef %9, i32 noundef 1)
  %90 = load ptr, ptr %12, align 8
  %91 = load i32, ptr %13, align 4
  %92 = zext i32 %91 to i64
  %93 = getelementptr inbounds ptr, ptr %90, i64 %92
  store ptr %89, ptr %93, align 8
  br label %94

94:                                               ; preds = %83
  %95 = load i32, ptr %13, align 4
  %96 = add i32 %95, 1
  store i32 %96, ptr %13, align 4
  br label %79, !llvm.loop !14

97:                                               ; preds = %79
  %98 = load ptr, ptr %12, align 8
  %99 = load ptr, ptr %8, align 8
  %100 = getelementptr inbounds %struct.FunctionPrototype_, ptr %99, i32 0, i32 10
  store ptr %98, ptr %100, align 8
  br label %101

101:                                              ; preds = %97, %70
  %102 = load ptr, ptr %8, align 8
  %103 = getelementptr inbounds %struct.FunctionPrototype_, ptr %102, i32 0, i32 5
  %104 = load ptr, ptr %103, align 8
  store ptr %104, ptr %6, align 8
  %105 = load ptr, ptr %6, align 8
  %106 = icmp ne ptr %105, null
  br i1 %106, label %108, label %107

107:                                              ; preds = %101
  store i32 0, ptr %5, align 4
  br label %113

108:                                              ; preds = %101
  %109 = load ptr, ptr %6, align 8
  store ptr %109, ptr %7, align 8
  %110 = load ptr, ptr %7, align 8
  %111 = getelementptr inbounds %struct.VHeader_, ptr %110, i64 -1
  %112 = load i32, ptr %111, align 4
  store i32 %112, ptr %5, align 4
  br label %113

113:                                              ; preds = %108, %107
  %114 = load i32, ptr %5, align 4
  store i32 %114, ptr %14, align 4
  %115 = load i32, ptr %14, align 4
  %116 = icmp ne i32 %115, 0
  br i1 %116, label %117, label %146

117:                                              ; preds = %113
  %118 = load i32, ptr %14, align 4
  %119 = zext i32 %118 to i64
  %120 = mul i64 32, %119
  %121 = call ptr @calloc_arena(i64 noundef %120)
  store ptr %121, ptr %15, align 8
  store i32 0, ptr %16, align 4
  br label %122

122:                                              ; preds = %139, %117
  %123 = load i32, ptr %16, align 4
  %124 = load i32, ptr %14, align 4
  %125 = icmp ult i32 %123, %124
  br i1 %125, label %126, label %142

126:                                              ; preds = %122
  %127 = load ptr, ptr %8, align 8
  %128 = getelementptr inbounds %struct.FunctionPrototype_, ptr %127, i32 0, i32 5
  %129 = load ptr, ptr %128, align 8
  %130 = load i32, ptr %16, align 4
  %131 = zext i32 %130 to i64
  %132 = getelementptr inbounds ptr, ptr %129, i64 %131
  %133 = load ptr, ptr %132, align 8
  %134 = call ptr @x64_classify_parameter(ptr noundef %133, ptr noundef %9, i32 noundef 0)
  %135 = load ptr, ptr %15, align 8
  %136 = load i32, ptr %16, align 4
  %137 = zext i32 %136 to i64
  %138 = getelementptr inbounds ptr, ptr %135, i64 %137
  store ptr %134, ptr %138, align 8
  br label %139

139:                                              ; preds = %126
  %140 = load i32, ptr %16, align 4
  %141 = add i32 %140, 1
  store i32 %141, ptr %16, align 4
  br label %122, !llvm.loop !15

142:                                              ; preds = %122
  %143 = load ptr, ptr %15, align 8
  %144 = load ptr, ptr %8, align 8
  %145 = getelementptr inbounds %struct.FunctionPrototype_, ptr %144, i32 0, i32 11
  store ptr %143, ptr %145, align 8
  br label %146

146:                                              ; preds = %142, %113, %22
  ret void
}