; Function Attrs: nounwind uwtable
define dso_local void @c_abi_func_create_x64(ptr noundef %0) local_unnamed_addr #1 {
  %2 = alloca %struct.Registers, align 8
  %3 = alloca %struct.Registers, align 8
  %4 = alloca %struct.Registers, align 8
  %5 = load i16, ptr %0, align 8
  %6 = and i16 %5, 32
  %.not = icmp eq i16 %6, 0
  br i1 %.not, label %8, label %7

7:                                                ; preds = %1
  tail call void @c_abi_func_create_win64(ptr noundef nonnull %0) #7
  br label %.thread65

8:                                                ; preds = %1
  %9 = getelementptr inbounds i8, ptr %0, i64 48
  %10 = load ptr, ptr %9, align 8
  %11 = tail call fastcc ptr @type_lowering(ptr noundef %10)
  %12 = tail call ptr @x64_classify_return(ptr noundef %11)
  %13 = getelementptr inbounds i8, ptr %0, i64 56
  store ptr %12, ptr %13, align 8
  %14 = tail call zeroext i1 @abi_arg_is_indirect(ptr noundef %12) #7
  %spec.select = select i1 %14, i32 5, i32 6
  %15 = load i16, ptr %0, align 8
  %16 = and i16 %15, 128
  %.not45 = icmp eq i16 %16, 0
  br i1 %.not45, label %35, label %17

17:                                               ; preds = %8
  %18 = getelementptr inbounds i8, ptr %0, i64 40
  %19 = load ptr, ptr %18, align 8
  %20 = tail call fastcc ptr @type_lowering(ptr noundef %19)
  %21 = tail call ptr @type_get_ptr(ptr noundef %20) #7
  call void @llvm.lifetime.start.p0(i64 8, ptr nonnull %4)
  store i64 0, ptr %4, align 8
  %22 = tail call fastcc ptr @type_lowering(ptr noundef %21)
  %23 = call fastcc ptr @x64_classify_argument_type(ptr noundef %22, i32 noundef %spec.select, ptr noundef nonnull %4, i32 noundef 1)
  %24 = load i32, ptr %4, align 8
  %25 = icmp ugt i32 %24, 8
  br i1 %25, label %32, label %26

26:                                               ; preds = %17
  %27 = getelementptr inbounds i8, ptr %4, i64 4
  %28 = load i32, ptr %27, align 4
  %29 = icmp ult i32 %spec.select, %28
  br i1 %29, label %32, label %try_use_registers.exit.i

try_use_registers.exit.i:                         ; preds = %26
  %30 = sub nsw i32 %spec.select, %28
  %31 = sub nuw nsw i32 8, %24
  br label %x64_classify_parameter.exit

32:                                               ; preds = %26, %17
  %33 = tail call ptr @x64_indirect_result(ptr noundef %22, i32 noundef %spec.select)
  br label %x64_classify_parameter.exit

x64_classify_parameter.exit:                      ; preds = %try_use_registers.exit.i, %32
  %.sroa.7.1 = phi i32 [ %spec.select, %32 ], [ %30, %try_use_registers.exit.i ]
  %.sroa.0.0 = phi i32 [ 8, %32 ], [ %31, %try_use_registers.exit.i ]
  %.0.i = phi ptr [ %33, %32 ], [ %23, %try_use_registers.exit.i ]
  call void @llvm.lifetime.end.p0(i64 8, ptr nonnull %4)
  %34 = getelementptr inbounds i8, ptr %0, i64 64
  store ptr %.0.i, ptr %34, align 8
  br label %35

35:                                               ; preds = %x64_classify_parameter.exit, %8
  %.sroa.7.2 = phi i32 [ %spec.select, %8 ], [ %.sroa.7.1, %x64_classify_parameter.exit ]
  %.sroa.0.1 = phi i32 [ 8, %8 ], [ %.sroa.0.0, %x64_classify_parameter.exit ]
  %36 = getelementptr inbounds i8, ptr %0, i64 16
  %37 = load ptr, ptr %36, align 8
  %.not46 = icmp eq ptr %37, null
  br i1 %.not46, label %.thread, label %38

38:                                               ; preds = %35
  %39 = getelementptr inbounds i8, ptr %37, i64 -8
  %40 = load i32, ptr %39, align 4
  %.not47 = icmp eq i32 %40, 0
  br i1 %.not47, label %.thread, label %41

41:                                               ; preds = %38
  %42 = zext i32 %40 to i64
  %43 = shl nuw nsw i64 %42, 5
  %44 = tail call ptr @calloc_arena(i64 noundef %43) #7
  %45 = getelementptr inbounds i8, ptr %3, i64 4
  br label %46

46:                                               ; preds = %41, %x64_classify_parameter.exit53
  %indvars.iv = phi i64 [ 0, %41 ], [ %indvars.iv.next, %x64_classify_parameter.exit53 ]
  %.sroa.0.269 = phi i32 [ %.sroa.0.1, %41 ], [ %.sroa.0.3, %x64_classify_parameter.exit53 ]
  %.sroa.7.368 = phi i32 [ %.sroa.7.2, %41 ], [ %.sroa.7.4, %x64_classify_parameter.exit53 ]
  %47 = getelementptr inbounds ptr, ptr %37, i64 %indvars.iv
  %48 = load ptr, ptr %47, align 8
  call void @llvm.lifetime.start.p0(i64 8, ptr nonnull %3)
  store i64 0, ptr %3, align 8
  %49 = tail call fastcc ptr @type_lowering(ptr noundef %48)
  %50 = call fastcc ptr @x64_classify_argument_type(ptr noundef %49, i32 noundef %.sroa.7.368, ptr noundef nonnull %3, i32 noundef 1)
  %51 = load i32, ptr %3, align 8
  %52 = icmp ult i32 %.sroa.0.269, %51
  br i1 %52, label %58, label %53

53:                                               ; preds = %46
  %54 = load i32, ptr %45, align 4
  %55 = icmp ult i32 %.sroa.7.368, %54
  br i1 %55, label %58, label %try_use_registers.exit.i51

try_use_registers.exit.i51:                       ; preds = %53
  %56 = sub i32 %.sroa.7.368, %54
  %57 = sub i32 %.sroa.0.269, %51
  br label %x64_classify_parameter.exit53

58:                                               ; preds = %53, %46
  %59 = tail call ptr @x64_indirect_result(ptr noundef %49, i32 noundef %.sroa.7.368)
  br label %x64_classify_parameter.exit53

x64_classify_parameter.exit53:                    ; preds = %try_use_registers.exit.i51, %58
  %.sroa.7.4 = phi i32 [ %.sroa.7.368, %58 ], [ %56, %try_use_registers.exit.i51 ]
  %.sroa.0.3 = phi i32 [ %.sroa.0.269, %58 ], [ %57, %try_use_registers.exit.i51 ]
  %.0.i52 = phi ptr [ %59, %58 ], [ %50, %try_use_registers.exit.i51 ]
  call void @llvm.lifetime.end.p0(i64 8, ptr nonnull %3)
  %60 = getelementptr inbounds ptr, ptr %44, i64 %indvars.iv
  store ptr %.0.i52, ptr %60, align 8
  %indvars.iv.next = add nuw nsw i64 %indvars.iv, 1
  %exitcond.not = icmp eq i64 %indvars.iv.next, %42
  br i1 %exitcond.not, label %61, label %46, !llvm.loop !15

61:                                               ; preds = %x64_classify_parameter.exit53
  %62 = getelementptr inbounds i8, ptr %0, i64 72
  store ptr %44, ptr %62, align 8
  br label %.thread

.thread:                                          ; preds = %35, %61, %38
  %.sroa.7.5 = phi i32 [ %.sroa.7.2, %38 ], [ %.sroa.7.4, %61 ], [ %.sroa.7.2, %35 ]
  %.sroa.0.4 = phi i32 [ %.sroa.0.1, %38 ], [ %.sroa.0.3, %61 ], [ %.sroa.0.1, %35 ]
  %63 = getelementptr inbounds i8, ptr %0, i64 32
  %64 = load ptr, ptr %63, align 8
  %.not48 = icmp eq ptr %64, null
  br i1 %.not48, label %.thread65, label %65

65:                                               ; preds = %.thread
  %66 = getelementptr inbounds i8, ptr %64, i64 -8
  %67 = load i32, ptr %66, align 4
  %.not49 = icmp eq i32 %67, 0
  br i1 %.not49, label %.thread65, label %68

68:                                               ; preds = %65
  %69 = zext i32 %67 to i64
  %70 = shl nuw nsw i64 %69, 5
  %71 = tail call ptr @calloc_arena(i64 noundef %70) #7
  %72 = getelementptr inbounds i8, ptr %2, i64 4
  br label %73

73:                                               ; preds = %68, %x64_classify_parameter.exit57
  %indvars.iv75 = phi i64 [ 0, %68 ], [ %indvars.iv.next76, %x64_classify_parameter.exit57 ]
  %.sroa.0.572 = phi i32 [ %.sroa.0.4, %68 ], [ %.sroa.0.6, %x64_classify_parameter.exit57 ]
  %.sroa.7.671 = phi i32 [ %.sroa.7.5, %68 ], [ %.sroa.7.7, %x64_classify_parameter.exit57 ]
  %74 = load ptr, ptr %63, align 8
  %75 = getelementptr inbounds ptr, ptr %74, i64 %indvars.iv75
  %76 = load ptr, ptr %75, align 8
  call void @llvm.lifetime.start.p0(i64 8, ptr nonnull %2)
  store i64 0, ptr %2, align 8
  %77 = tail call fastcc ptr @type_lowering(ptr noundef %76)
  %78 = call fastcc ptr @x64_classify_argument_type(ptr noundef %77, i32 noundef %.sroa.7.671, ptr noundef nonnull %2, i32 noundef 0)
  %79 = load i32, ptr %2, align 8
  %80 = icmp ult i32 %.sroa.0.572, %79
  br i1 %80, label %86, label %81

81:                                               ; preds = %73
  %82 = load i32, ptr %72, align 4
  %83 = icmp ult i32 %.sroa.7.671, %82
  br i1 %83, label %86, label %try_use_registers.exit.i55

try_use_registers.exit.i55:                       ; preds = %81
  %84 = sub i32 %.sroa.7.671, %82
  %85 = sub i32 %.sroa.0.572, %79
  br label %x64_classify_parameter.exit57

86:                                               ; preds = %81, %73
  %87 = tail call ptr @x64_indirect_result(ptr noundef %77, i32 noundef %.sroa.7.671)
  br label %x64_classify_parameter.exit57

x64_classify_parameter.exit57:                    ; preds = %try_use_registers.exit.i55, %86
  %.sroa.7.7 = phi i32 [ %.sroa.7.671, %86 ], [ %84, %try_use_registers.exit.i55 ]
  %.sroa.0.6 = phi i32 [ %.sroa.0.572, %86 ], [ %85, %try_use_registers.exit.i55 ]
  %.0.i56 = phi ptr [ %87, %86 ], [ %78, %try_use_registers.exit.i55 ]
  call void @llvm.lifetime.end.p0(i64 8, ptr nonnull %2)
  %88 = getelementptr inbounds ptr, ptr %71, i64 %indvars.iv75
  store ptr %.0.i56, ptr %88, align 8
  %indvars.iv.next76 = add nuw nsw i64 %indvars.iv75, 1
  %exitcond79.not = icmp eq i64 %indvars.iv.next76, %69
  br i1 %exitcond79.not, label %89, label %73, !llvm.loop !16

89:                                               ; preds = %x64_classify_parameter.exit57
  %90 = getelementptr inbounds i8, ptr %0, i64 80
  store ptr %71, ptr %90, align 8
  br label %.thread65

.thread65:                                        ; preds = %.thread, %89, %65, %7
  ret void
}